; Function Attrs: nounwind uwtable
define range(i32 -2, 1) i32 @KINGetNumJtimesEvals(ptr noundef %0, ptr noundef writeonly captures(none) %1) local_unnamed_addr #0 {
  %3 = icmp eq ptr %0, null
  br i1 %3, label %4, label %5

4:                                                ; preds = %2
  tail call void (ptr, i32, i32, ptr, ptr, ptr, ...) @KINProcessError(ptr noundef null, i32 noundef -1, i32 noundef 1399, ptr noundef nonnull @__func__.KINGetNumJtimesEvals, ptr noundef nonnull @.str, ptr noundef nonnull @.str.1) #13
  br label %kinLs_AccessLMem.exit.thread

5:                                                ; preds = %2
  %6 = getelementptr inbounds nuw i8, ptr %0, i64 584
  %7 = load ptr, ptr %6, align 8, !tbaa !55
  %8 = icmp eq ptr %7, null
  br i1 %8, label %9, label %kinLs_AccessLMem.exit

9:                                                ; preds = %5
  tail call void (ptr, i32, i32, ptr, ptr, ptr, ...) @KINProcessError(ptr noundef nonnull %0, i32 noundef -2, i32 noundef 1406, ptr noundef nonnull @__func__.KINGetNumJtimesEvals, ptr noundef nonnull @.str, ptr noundef nonnull @.str.26) #13
  br label %kinLs_AccessLMem.exit.thread

kinLs_AccessLMem.exit:                            ; preds = %5
  %10 = getelementptr inbounds nuw i8, ptr %7, i64 104
  %11 = load i64, ptr %10, align 8, !tbaa !91
  store i64 %11, ptr %1, align 8, !tbaa !99
  br label %kinLs_AccessLMem.exit.thread

kinLs_AccessLMem.exit.thread:                     ; preds = %9, %4, %kinLs_AccessLMem.exit
  %.0 = phi i32 [ 0, %kinLs_AccessLMem.exit ], [ -2, %9 ], [ -1, %4 ]
  ret i32 %.0
}